target datalayout = "e-m:e-p270:32:32-p271:32:32-p272:64:64-i64:64-i128:128-f80:128-n8:16:32:64-S128"
target triple = "x86_64-pc-linux-gnu"

%struct.GeoHashRange = type { double, double }
%struct.GeoHashBits = type { i64, i8 }

@interleave64.B = internal constant [5 x i64] [i64 6148914691236517205, i64 3689348814741910323, i64 1085102592571150095, i64 71777214294589695, i64 281470681808895], align 16
@interleave64.S = internal constant [5 x i32] [i32 1, i32 2, i32 4, i32 8, i32 16], align 16

; Function Attrs: inlinehint nounwind uwtable
define internal i64 @interleave64(i32 noundef %0, i32 noundef %1) #2 {
  %3 = alloca i32, align 4
  %4 = alloca i32, align 4
  %5 = alloca i64, align 8
  %6 = alloca i64, align 8
  store i32 %0, ptr %3, align 4, !tbaa !19
  store i32 %1, ptr %4, align 4, !tbaa !19
  call void @llvm.lifetime.start.p0(i64 8, ptr %5) #6
  %7 = load i32, ptr %3, align 4, !tbaa !19
  %8 = zext i32 %7 to i64
  store i64 %8, ptr %5, align 8, !tbaa !21
  call void @llvm.lifetime.start.p0(i64 8, ptr %6) #6
  %9 = load i32, ptr %4, align 4, !tbaa !19
  %10 = zext i32 %9 to i64
  store i64 %10, ptr %6, align 8, !tbaa !21
  %11 = load i64, ptr %5, align 8, !tbaa !21
  %12 = load i64, ptr %5, align 8, !tbaa !21
  %13 = load i32, ptr getelementptr inbounds ([5 x i32], ptr @interleave64.S, i64 0, i64 4), align 16, !tbaa !19
  %14 = zext i32 %13 to i64
  %15 = shl i64 %12, %14
  %16 = or i64 %11, %15
  %17 = load i64, ptr getelementptr inbounds ([5 x i64], ptr @interleave64.B, i64 0, i64 4), align 16, !tbaa !21
  %18 = and i64 %16, %17
  store i64 %18, ptr %5, align 8, !tbaa !21
  %19 = load i64, ptr %6, align 8, !tbaa !21
  %20 = load i64, ptr %6, align 8, !tbaa !21
  %21 = load i32, ptr getelementptr inbounds ([5 x i32], ptr @interleave64.S, i64 0, i64 4), align 16, !tbaa !19
  %22 = zext i32 %21 to i64
  %23 = shl i64 %20, %22
  %24 = or i64 %19, %23
  %25 = load i64, ptr getelementptr inbounds ([5 x i64], ptr @interleave64.B, i64 0, i64 4), align 16, !tbaa !21
  %26 = and i64 %24, %25
  store i64 %26, ptr %6, align 8, !tbaa !21
  %27 = load i64, ptr %5, align 8, !tbaa !21
  %28 = load i64, ptr %5, align 8, !tbaa !21
  %29 = load i32, ptr getelementptr inbounds ([5 x i32], ptr @interleave64.S, i64 0, i64 3), align 4, !tbaa !19
  %30 = zext i32 %29 to i64
  %31 = shl i64 %28, %30
  %32 = or i64 %27, %31
  %33 = load i64, ptr getelementptr inbounds ([5 x i64], ptr @interleave64.B, i64 0, i64 3), align 8, !tbaa !21
  %34 = and i64 %32, %33
  store i64 %34, ptr %5, align 8, !tbaa !21
  %35 = load i64, ptr %6, align 8, !tbaa !21
  %36 = load i64, ptr %6, align 8, !tbaa !21
  %37 = load i32, ptr getelementptr inbounds ([5 x i32], ptr @interleave64.S, i64 0, i64 3), align 4, !tbaa !19
  %38 = zext i32 %37 to i64
  %39 = shl i64 %36, %38
  %40 = or i64 %35, %39
  %41 = load i64, ptr getelementptr inbounds ([5 x i64], ptr @interleave64.B, i64 0, i64 3), align 8, !tbaa !21
  %42 = and i64 %40, %41
  store i64 %42, ptr %6, align 8, !tbaa !21
  %43 = load i64, ptr %5, align 8, !tbaa !21
  %44 = load i64, ptr %5, align 8, !tbaa !21
  %45 = load i32, ptr getelementptr inbounds ([5 x i32], ptr @interleave64.S, i64 0, i64 2), align 8, !tbaa !19
  %46 = zext i32 %45 to i64
  %47 = shl i64 %44, %46
  %48 = or i64 %43, %47
  %49 = load i64, ptr getelementptr inbounds ([5 x i64], ptr @interleave64.B, i64 0, i64 2), align 16, !tbaa !21
  %50 = and i64 %48, %49
  store i64 %50, ptr %5, align 8, !tbaa !21
  %51 = load i64, ptr %6, align 8, !tbaa !21
  %52 = load i64, ptr %6, align 8, !tbaa !21
  %53 = load i32, ptr getelementptr inbounds ([5 x i32], ptr @interleave64.S, i64 0, i64 2), align 8, !tbaa !19
  %54 = zext i32 %53 to i64
  %55 = shl i64 %52, %54
  %56 = or i64 %51, %55
  %57 = load i64, ptr getelementptr inbounds ([5 x i64], ptr @interleave64.B, i64 0, i64 2), align 16, !tbaa !21
  %58 = and i64 %56, %57
  store i64 %58, ptr %6, align 8, !tbaa !21
  %59 = load i64, ptr %5, align 8, !tbaa !21
  %60 = load i64, ptr %5, align 8, !tbaa !21
  %61 = load i32, ptr getelementptr inbounds ([5 x i32], ptr @interleave64.S, i64 0, i64 1), align 4, !tbaa !19
  %62 = zext i32 %61 to i64
  %63 = shl i64 %60, %62
  %64 = or i64 %59, %63
  %65 = load i64, ptr getelementptr inbounds ([5 x i64], ptr @interleave64.B, i64 0, i64 1), align 8, !tbaa !21
  %66 = and i64 %64, %65
  store i64 %66, ptr %5, align 8, !tbaa !21
  %67 = load i64, ptr %6, align 8, !tbaa !21
  %68 = load i64, ptr %6, align 8, !tbaa !21
  %69 = load i32, ptr getelementptr inbounds ([5 x i32], ptr @interleave64.S, i64 0, i64 1), align 4, !tbaa !19
  %70 = zext i32 %69 to i64
  %71 = shl i64 %68, %70
  %72 = or i64 %67, %71
  %73 = load i64, ptr getelementptr inbounds ([5 x i64], ptr @interleave64.B, i64 0, i64 1), align 8, !tbaa !21
  %74 = and i64 %72, %73
  store i64 %74, ptr %6, align 8, !tbaa !21
  %75 = load i64, ptr %5, align 8, !tbaa !21
  %76 = load i64, ptr %5, align 8, !tbaa !21
  %77 = load i32, ptr @interleave64.S, align 16, !tbaa !19
  %78 = zext i32 %77 to i64
  %79 = shl i64 %76, %78
  %80 = or i64 %75, %79
  %81 = load i64, ptr @interleave64.B, align 16, !tbaa !21
  %82 = and i64 %80, %81
  store i64 %82, ptr %5, align 8, !tbaa !21
  %83 = load i64, ptr %6, align 8, !tbaa !21
  %84 = load i64, ptr %6, align 8, !tbaa !21
  %85 = load i32, ptr @interleave64.S, align 16, !tbaa !19
  %86 = zext i32 %85 to i64
  %87 = shl i64 %84, %86
  %88 = or i64 %83, %87
  %89 = load i64, ptr @interleave64.B, align 16, !tbaa !21
  %90 = and i64 %88, %89
  store i64 %90, ptr %6, align 8, !tbaa !21
  %91 = load i64, ptr %5, align 8, !tbaa !21
  %92 = load i64, ptr %6, align 8, !tbaa !21
  %93 = shl i64 %92, 1
  %94 = or i64 %91, %93
  call void @llvm.lifetime.end.p0(i64 8, ptr %6) #6
  call void @llvm.lifetime.end.p0(i64 8, ptr %5) #6
  ret i64 %94
}

; Function Attrs: nounwind uwtable
define dso_local i32 @geohashEncode(ptr noundef %0, ptr noundef %1, double noundef %2, double noundef %3, i8 noundef zeroext %4, ptr noundef %5) #0 {
  %7 = alloca i32, align 4
  %8 = alloca ptr, align 8
  %9 = alloca ptr, align 8
  %10 = alloca double, align 8
  %11 = alloca double, align 8
  %12 = alloca i8, align 1
  %13 = alloca ptr, align 8
  %14 = alloca double, align 8
  %15 = alloca double, align 8
  store ptr %0, ptr %8, align 8, !tbaa !5
  store ptr %1, ptr %9, align 8, !tbaa !5
  store double %2, ptr %10, align 8, !tbaa !13
  store double %3, ptr %11, align 8, !tbaa !13
  store i8 %4, ptr %12, align 1, !tbaa !14
  store ptr %5, ptr %13, align 8, !tbaa !5
  %16 = load ptr, ptr %13, align 8, !tbaa !5
  %17 = icmp eq ptr %16, null
  br i1 %17, label %52, label %18

18:                                               ; preds = %6
  %19 = load i8, ptr %12, align 1, !tbaa !14
  %20 = zext i8 %19 to i32
  %21 = icmp sgt i32 %20, 32
  br i1 %21, label %52, label %22

22:                                               ; preds = %18
  %23 = load i8, ptr %12, align 1, !tbaa !14
  %24 = zext i8 %23 to i32
  %25 = icmp eq i32 %24, 0
  br i1 %25, label %52, label %26

26:                                               ; preds = %22
  %27 = load ptr, ptr %9, align 8, !tbaa !5
  %28 = icmp eq ptr %27, null
  br i1 %28, label %52, label %29

29:                                               ; preds = %26
  %30 = load ptr, ptr %9, align 8, !tbaa !5
  %31 = getelementptr inbounds nuw %struct.GeoHashRange, ptr %30, i32 0, i32 1
  %32 = load double, ptr %31, align 8, !tbaa !9
  %33 = fcmp une double %32, 0.000000e+00
  br i1 %33, label %39, label %34

34:                                               ; preds = %29
  %35 = load ptr, ptr %9, align 8, !tbaa !5
  %36 = getelementptr inbounds nuw %struct.GeoHashRange, ptr %35, i32 0, i32 0
  %37 = load double, ptr %36, align 8, !tbaa !12
  %38 = fcmp une double %37, 0.000000e+00
  br i1 %38, label %39, label %52

39:                                               ; preds = %34, %29
  %40 = load ptr, ptr %8, align 8, !tbaa !5
  %41 = icmp eq ptr %40, null
  br i1 %41, label %52, label %42

42:                                               ; preds = %39
  %43 = load ptr, ptr %8, align 8, !tbaa !5
  %44 = getelementptr inbounds nuw %struct.GeoHashRange, ptr %43, i32 0, i32 1
  %45 = load double, ptr %44, align 8, !tbaa !9
  %46 = fcmp une double %45, 0.000000e+00
  br i1 %46, label %53, label %47

47:                                               ; preds = %42
  %48 = load ptr, ptr %8, align 8, !tbaa !5
  %49 = getelementptr inbounds nuw %struct.GeoHashRange, ptr %48, i32 0, i32 0
  %50 = load double, ptr %49, align 8, !tbaa !12
  %51 = fcmp une double %50, 0.000000e+00
  br i1 %51, label %53, label %52

52:                                               ; preds = %47, %39, %34, %26, %22, %18, %6
  store i32 0, ptr %7, align 4
  br label %144

53:                                               ; preds = %47, %42
  %54 = load double, ptr %10, align 8, !tbaa !13
  %55 = fcmp ogt double %54, 1.800000e+02
  br i1 %55, label %65, label %56

56:                                               ; preds = %53
  %57 = load double, ptr %10, align 8, !tbaa !13
  %58 = fcmp olt double %57, -1.800000e+02
  br i1 %58, label %65, label %59

59:                                               ; preds = %56
  %60 = load double, ptr %11, align 8, !tbaa !13
  %61 = fcmp ogt double %60, 0x40554345B1A57F00
  br i1 %61, label %65, label %62

62:                                               ; preds = %59
  %63 = load double, ptr %11, align 8, !tbaa !13
  %64 = fcmp olt double %63, 0xC0554345B1A57F00
  br i1 %64, label %65, label %66

65:                                               ; preds = %62, %59, %56, %53
  store i32 0, ptr %7, align 4
  br label %144

66:                                               ; preds = %62
  %67 = load ptr, ptr %13, align 8, !tbaa !5
  %68 = getelementptr inbounds nuw %struct.GeoHashBits, ptr %67, i32 0, i32 0
  store i64 0, ptr %68, align 8, !tbaa !15
  %69 = load i8, ptr %12, align 1, !tbaa !14
  %70 = load ptr, ptr %13, align 8, !tbaa !5
  %71 = getelementptr inbounds nuw %struct.GeoHashBits, ptr %70, i32 0, i32 1
  store i8 %69, ptr %71, align 8, !tbaa !18
  %72 = load double, ptr %11, align 8, !tbaa !13
  %73 = load ptr, ptr %9, align 8, !tbaa !5
  %74 = getelementptr inbounds nuw %struct.GeoHashRange, ptr %73, i32 0, i32 0
  %75 = load double, ptr %74, align 8, !tbaa !12
  %76 = fcmp olt double %72, %75
  br i1 %76, label %95, label %77

77:                                               ; preds = %66
  %78 = load double, ptr %11, align 8, !tbaa !13
  %79 = load ptr, ptr %9, align 8, !tbaa !5
  %80 = getelementptr inbounds nuw %struct.GeoHashRange, ptr %79, i32 0, i32 1
  %81 = load double, ptr %80, align 8, !tbaa !9
  %82 = fcmp ogt double %78, %81
  br i1 %82, label %95, label %83

83:                                               ; preds = %77
  %84 = load double, ptr %10, align 8, !tbaa !13
  %85 = load ptr, ptr %8, align 8, !tbaa !5
  %86 = getelementptr inbounds nuw %struct.GeoHashRange, ptr %85, i32 0, i32 0
  %87 = load double, ptr %86, align 8, !tbaa !12
  %88 = fcmp olt double %84, %87
  br i1 %88, label %95, label %89

89:                                               ; preds = %83
  %90 = load double, ptr %10, align 8, !tbaa !13
  %91 = load ptr, ptr %8, align 8, !tbaa !5
  %92 = getelementptr inbounds nuw %struct.GeoHashRange, ptr %91, i32 0, i32 1
  %93 = load double, ptr %92, align 8, !tbaa !9
  %94 = fcmp ogt double %90, %93
  br i1 %94, label %95, label %96

95:                                               ; preds = %89, %83, %77, %66
  store i32 0, ptr %7, align 4
  br label %144

96:                                               ; preds = %89
  call void @llvm.lifetime.start.p0(i64 8, ptr %14) #6
  %97 = load double, ptr %11, align 8, !tbaa !13
  %98 = load ptr, ptr %9, align 8, !tbaa !5
  %99 = getelementptr inbounds nuw %struct.GeoHashRange, ptr %98, i32 0, i32 0
  %100 = load double, ptr %99, align 8, !tbaa !12
  %101 = fsub double %97, %100
  %102 = load ptr, ptr %9, align 8, !tbaa !5
  %103 = getelementptr inbounds nuw %struct.GeoHashRange, ptr %102, i32 0, i32 1
  %104 = load double, ptr %103, align 8, !tbaa !9
  %105 = load ptr, ptr %9, align 8, !tbaa !5
  %106 = getelementptr inbounds nuw %struct.GeoHashRange, ptr %105, i32 0, i32 0
  %107 = load double, ptr %106, align 8, !tbaa !12
  %108 = fsub double %104, %107
  %109 = fdiv double %101, %108
  store double %109, ptr %14, align 8, !tbaa !13
  call void @llvm.lifetime.start.p0(i64 8, ptr %15) #6
  %110 = load double, ptr %10, align 8, !tbaa !13
  %111 = load ptr, ptr %8, align 8, !tbaa !5
  %112 = getelementptr inbounds nuw %struct.GeoHashRange, ptr %111, i32 0, i32 0
  %113 = load double, ptr %112, align 8, !tbaa !12
  %114 = fsub double %110, %113
  %115 = load ptr, ptr %8, align 8, !tbaa !5
  %116 = getelementptr inbounds nuw %struct.GeoHashRange, ptr %115, i32 0, i32 1
  %117 = load double, ptr %116, align 8, !tbaa !9
  %118 = load ptr, ptr %8, align 8, !tbaa !5
  %119 = getelementptr inbounds nuw %struct.GeoHashRange, ptr %118, i32 0, i32 0
  %120 = load double, ptr %119, align 8, !tbaa !12
  %121 = fsub double %117, %120
  %122 = fdiv double %114, %121
  store double %122, ptr %15, align 8, !tbaa !13
  %123 = load i8, ptr %12, align 1, !tbaa !14
  %124 = zext i8 %123 to i32
  %125 = zext i32 %124 to i64
  %126 = shl i64 1, %125
  %127 = uitofp i64 %126 to double
  %128 = load double, ptr %14, align 8, !tbaa !13
  %129 = fmul double %128, %127
  store double %129, ptr %14, align 8, !tbaa !13
  %130 = load i8, ptr %12, align 1, !tbaa !14
  %131 = zext i8 %130 to i32
  %132 = zext i32 %131 to i64
  %133 = shl i64 1, %132
  %134 = uitofp i64 %133 to double
  %135 = load double, ptr %15, align 8, !tbaa !13
  %136 = fmul double %135, %134
  store double %136, ptr %15, align 8, !tbaa !13
  %137 = load double, ptr %14, align 8, !tbaa !13
  %138 = fptoui double %137 to i32
  %139 = load double, ptr %15, align 8, !tbaa !13
  %140 = fptoui double %139 to i32
  %141 = call i64 @interleave64(i32 noundef %138, i32 noundef %140)
  %142 = load ptr, ptr %13, align 8, !tbaa !5
  %143 = getelementptr inbounds nuw %struct.GeoHashBits, ptr %142, i32 0, i32 0
  store i64 %141, ptr %143, align 8, !tbaa !15
  store i32 1, ptr %7, align 4
  call void @llvm.lifetime.end.p0(i64 8, ptr %15) #6
  call void @llvm.lifetime.end.p0(i64 8, ptr %14) #6
  br label %144

144:                                              ; preds = %96, %95, %65, %52
  %145 = load i32, ptr %7, align 4
  ret i32 %145
}

; Function Attrs: nounwind uwtable
define dso_local void @geohashGetCoordRange(ptr noundef %0, ptr noundef %1) #0 {
  %3 = alloca ptr, align 8
  %4 = alloca ptr, align 8
  store ptr %0, ptr %3, align 8, !tbaa !5
  store ptr %1, ptr %4, align 8, !tbaa !5
  %5 = load ptr, ptr %3, align 8, !tbaa !5
  %6 = getelementptr inbounds nuw %struct.GeoHashRange, ptr %5, i32 0, i32 1
  store double 1.800000e+02, ptr %6, align 8, !tbaa !9
  %7 = load ptr, ptr %3, align 8, !tbaa !5
  %8 = getelementptr inbounds nuw %struct.GeoHashRange, ptr %7, i32 0, i32 0
  store double -1.800000e+02, ptr %8, align 8, !tbaa !12
  %9 = load ptr, ptr %4, align 8, !tbaa !5
  %10 = getelementptr inbounds nuw %struct.GeoHashRange, ptr %9, i32 0, i32 1
  store double 0x40554345B1A57F00, ptr %10, align 8, !tbaa !9
  %11 = load ptr, ptr %4, align 8, !tbaa !5
  %12 = getelementptr inbounds nuw %struct.GeoHashRange, ptr %11, i32 0, i32 0
  store double 0xC0554345B1A57F00, ptr %12, align 8, !tbaa !12
  ret void
}

; Function Attrs: nounwind uwtable
define dso_local i32 @geohashEncodeType(double noundef %0, double noundef %1, i8 noundef zeroext %2, ptr noundef %3) #0 {
  %5 = alloca double, align 8
  %6 = alloca double, align 8
  %7 = alloca i8, align 1
  %8 = alloca ptr, align 8
  %9 = alloca [2 x %struct.GeoHashRange], align 16
  store double %0, ptr %5, align 8, !tbaa !13
  store double %1, ptr %6, align 8, !tbaa !13
  store i8 %2, ptr %7, align 1, !tbaa !14
  store ptr %3, ptr %8, align 8, !tbaa !5
  call void @llvm.lifetime.start.p0(i64 32, ptr %9) #6
  call void @llvm.memset.p0.i64(ptr align 16 %9, i8 0, i64 32, i1 false)
  %10 = getelementptr inbounds [2 x %struct.GeoHashRange], ptr %9, i64 0, i64 0
  %11 = getelementptr inbounds [2 x %struct.GeoHashRange], ptr %9, i64 0, i64 1
  call void @geohashGetCoordRange(ptr noundef %10, ptr noundef %11)
  %12 = getelementptr inbounds [2 x %struct.GeoHashRange], ptr %9, i64 0, i64 0
  %13 = getelementptr inbounds [2 x %struct.GeoHashRange], ptr %9, i64 0, i64 1
  %14 = load double, ptr %5, align 8, !tbaa !13
  %15 = load double, ptr %6, align 8, !tbaa !13
  %16 = load i8, ptr %7, align 1, !tbaa !14
  %17 = load ptr, ptr %8, align 8, !tbaa !5
  %18 = call i32 @geohashEncode(ptr noundef %12, ptr noundef %13, double noundef %14, double noundef %15, i8 noundef zeroext %16, ptr noundef %17)
  call void @llvm.lifetime.end.p0(i64 32, ptr %9) #6
  ret i32 %18
}

; Function Attrs: nounwind uwtable
define dso_local i32 @geohashEncodeWGS84(double noundef %0, double noundef %1, i8 noundef zeroext %2, ptr noundef %3) #0 {
  %5 = alloca double, align 8
  %6 = alloca double, align 8
  %7 = alloca i8, align 1
  %8 = alloca ptr, align 8
  store double %0, ptr %5, align 8, !tbaa !13
  store double %1, ptr %6, align 8, !tbaa !13
  store i8 %2, ptr %7, align 1, !tbaa !14
  store ptr %3, ptr %8, align 8, !tbaa !5
  %9 = load double, ptr %5, align 8, !tbaa !13
  %10 = load double, ptr %6, align 8, !tbaa !13
  %11 = load i8, ptr %7, align 1, !tbaa !14
  %12 = load ptr, ptr %8, align 8, !tbaa !5
  %13 = call i32 @geohashEncodeType(double noundef %9, double noundef %10, i8 noundef zeroext %11, ptr noundef %12)
  ret i32 %13
}