; Function Attrs: mustprogress nofree norecurse nosync nounwind willreturn memory(argmem: write) uwtable
define dso_local range(i32 0, 2) i32 @geohashEncodeWGS84(double noundef %0, double noundef %1, i8 noundef zeroext %2, ptr noundef writeonly captures(address_is_null) %3) local_unnamed_addr #0 {
  %5 = icmp eq ptr %3, null
  %6 = add i8 %2, -33
  %7 = icmp ult i8 %6, -32
  %or.cond5.i.i = or i1 %5, %7
  br i1 %or.cond5.i.i, label %geohashEncodeType.exit, label %8

8:                                                ; preds = %4
  %9 = tail call double @llvm.fabs.f64(double %0)
  %or.cond12.i.i = fcmp ogt double %9, 1.800000e+02
  %10 = tail call double @llvm.fabs.f64(double %1)
  %11 = fcmp ogt double %10, 0x40554345B1A57F00
  %or.cond18.i.i = or i1 %or.cond12.i.i, %11
  br i1 %or.cond18.i.i, label %geohashEncodeType.exit, label %12

12:                                               ; preds = %8
  %13 = getelementptr inbounds nuw i8, ptr %3, i64 8
  store i8 %2, ptr %13, align 8, !tbaa !14
  %14 = fadd double %1, 0x40554345B1A57F00
  %15 = fdiv double %14, 0x40654345B1A57F00
  %16 = fadd double %0, 1.800000e+02
  %17 = fdiv double %16, 3.600000e+02
  %18 = zext nneg i8 %2 to i64
  %19 = shl nuw nsw i64 1, %18
  %20 = uitofp nneg i64 %19 to double
  %21 = fmul double %15, %20
  %22 = fmul double %17, %20
  %23 = fptoui double %21 to i32
  %24 = fptoui double %22 to i32
  %25 = zext i32 %23 to i64
  %26 = zext i32 %24 to i64
  %27 = shl nuw nsw i64 %25, 16
  %28 = or i64 %27, %25
  %29 = and i64 %28, 281470681808895
  %30 = shl nuw nsw i64 %26, 16
  %31 = or i64 %30, %26
  %32 = and i64 %31, 281470681808895
  %33 = shl nuw nsw i64 %29, 8
  %34 = or i64 %33, %29
  %35 = and i64 %34, 71777214294589695
  %36 = shl nuw nsw i64 %32, 8
  %37 = or i64 %36, %32
  %38 = and i64 %37, 71777214294589695
  %39 = shl nuw nsw i64 %35, 4
  %40 = or i64 %39, %35
  %41 = and i64 %40, 1085102592571150095
  %42 = shl nuw nsw i64 %38, 4
  %43 = or i64 %42, %38
  %44 = and i64 %43, 1085102592571150095
  %45 = shl nuw nsw i64 %41, 2
  %46 = or i64 %45, %41
  %47 = and i64 %46, 3689348814741910323
  %48 = shl nuw nsw i64 %44, 2
  %49 = or i64 %48, %44
  %50 = and i64 %49, 3689348814741910323
  %51 = shl nuw nsw i64 %47, 1
  %52 = or i64 %51, %47
  %53 = and i64 %52, 6148914691236517205
  %54 = shl nuw i64 %50, 2
  %55 = shl nuw nsw i64 %50, 1
  %56 = or i64 %54, %55
  %57 = and i64 %56, -6148914691236517206
  %58 = or disjoint i64 %57, %53
  store i64 %58, ptr %3, align 8, !tbaa !11
  br label %geohashEncodeType.exit

geohashEncodeType.exit:                           ; preds = %4, %8, %12
  %.0.i.i = phi i32 [ 1, %12 ], [ 0, %4 ], [ 0, %8 ]
  ret i32 %.0.i.i
}